; ModuleID = '2/986.c'
source_filename = "2/986.c"
target datalayout = "e-m:e-p270:32:32-p271:32:32-p272:64:64-i64:64-f80:128-n8:16:32:64-S128"
target triple = "x86_64-pc-linux-gnu"

%struct.anon = type { i32, [26 x i8] }

@.str = private unnamed_addr constant [3 x i8] c"%d\00", align 1
@.str.1 = private unnamed_addr constant [5 x i8] c"%d%s\00", align 1
@.str.2 = private unnamed_addr constant [7 x i8] c"%c\0A%d\0A\00", align 1
@.str.3 = private unnamed_addr constant [4 x i8] c"%d\0A\00", align 1

; Function Attrs: noinline nounwind uwtable
define dso_local i32 @main() #0 {
  %1 = alloca i32, align 4
  %2 = alloca i32, align 4
  %3 = alloca i32, align 4
  %4 = alloca i32, align 4
  %5 = alloca i32, align 4
  %6 = alloca i32, align 4
  %7 = alloca i32, align 4
  %8 = alloca i32, align 4
  %9 = alloca i8, align 1
  %10 = alloca [26 x i32], align 16
  %11 = alloca [999 x %struct.anon], align 16
  store i32 0, i32* %1, align 4
  %12 = call i32 (i8*, ...) @__isoc99_scanf(i8* getelementptr inbounds ([3 x i8], [3 x i8]* @.str, i64 0, i64 0), i32* %2)
  store i32 0, i32* %3, align 4
  br label %13

13:                                               ; preds = %28, %0
  %14 = load i32, i32* %3, align 4
  %15 = load i32, i32* %2, align 4
  %16 = icmp slt i32 %14, %15
  br i1 %16, label %17, label %31

17:                                               ; preds = %13
  %18 = load i32, i32* %3, align 4
  %19 = sext i32 %18 to i64
  %20 = getelementptr inbounds [999 x %struct.anon], [999 x %struct.anon]* %11, i64 0, i64 %19
  %21 = getelementptr inbounds %struct.anon, %struct.anon* %20, i32 0, i32 0
  %22 = load i32, i32* %3, align 4
  %23 = sext i32 %22 to i64
  %24 = getelementptr inbounds [999 x %struct.anon], [999 x %struct.anon]* %11, i64 0, i64 %23
  %25 = getelementptr inbounds %struct.anon, %struct.anon* %24, i32 0, i32 1
  %26 = getelementptr inbounds [26 x i8], [26 x i8]* %25, i64 0, i64 0
  %27 = call i32 (i8*, ...) @__isoc99_scanf(i8* getelementptr inbounds ([5 x i8], [5 x i8]* @.str.1, i64 0, i64 0), i32* %21, i8* %26)
  br label %28

28:                                               ; preds = %17
  %29 = load i32, i32* %3, align 4
  %30 = add nsw i32 %29, 1
  store i32 %30, i32* %3, align 4
  br label %13

31:                                               ; preds = %13
  store i32 0, i32* %3, align 4
  br label %32

32:                                               ; preds = %39, %31
  %33 = load i32, i32* %3, align 4
  %34 = icmp slt i32 %33, 26
  br i1 %34, label %35, label %42

35:                                               ; preds = %32
  %36 = load i32, i32* %3, align 4
  %37 = sext i32 %36 to i64
  %38 = getelementptr inbounds [26 x i32], [26 x i32]* %10, i64 0, i64 %37
  store i32 0, i32* %38, align 4
  br label %39

39:                                               ; preds = %35
  %40 = load i32, i32* %3, align 4
  %41 = add nsw i32 %40, 1
  store i32 %41, i32* %3, align 4
  br label %32

42:                                               ; preds = %32
  store i32 0, i32* %3, align 4
  br label %43

43:                                               ; preds = %79, %42
  %44 = load i32, i32* %3, align 4
  %45 = load i32, i32* %2, align 4
  %46 = icmp slt i32 %44, %45
  br i1 %46, label %47, label %82

47:                                               ; preds = %43
  %48 = load i32, i32* %3, align 4
  %49 = sext i32 %48 to i64
  %50 = getelementptr inbounds [999 x %struct.anon], [999 x %struct.anon]* %11, i64 0, i64 %49
  %51 = getelementptr inbounds %struct.anon, %struct.anon* %50, i32 0, i32 1
  %52 = getelementptr inbounds [26 x i8], [26 x i8]* %51, i64 0, i64 0
  %53 = call i64 @strlen(i8* %52) #3
  %54 = trunc i64 %53 to i32
  store i32 %54, i32* %5, align 4
  store i32 0, i32* %4, align 4
  br label %55

55:                                               ; preds = %75, %47
  %56 = load i32, i32* %4, align 4
  %57 = load i32, i32* %5, align 4
  %58 = icmp slt i32 %56, %57
  br i1 %58, label %59, label %78

59:                                               ; preds = %55
  %60 = load i32, i32* %3, align 4
  %61 = sext i32 %60 to i64
  %62 = getelementptr inbounds [999 x %struct.anon], [999 x %struct.anon]* %11, i64 0, i64 %61
  %63 = getelementptr inbounds %struct.anon, %struct.anon* %62, i32 0, i32 1
  %64 = load i32, i32* %4, align 4
  %65 = sext i32 %64 to i64
  %66 = getelementptr inbounds [26 x i8], [26 x i8]* %63, i64 0, i64 %65
  %67 = load i8, i8* %66, align 1
  %68 = sext i8 %67 to i32
  %69 = sub nsw i32 %68, 65
  store i32 %69, i32* %6, align 4
  %70 = load i32, i32* %6, align 4
  %71 = sext i32 %70 to i64
  %72 = getelementptr inbounds [26 x i32], [26 x i32]* %10, i64 0, i64 %71
  %73 = load i32, i32* %72, align 4
  %74 = add nsw i32 %73, 1
  store i32 %74, i32* %72, align 4
  br label %75

75:                                               ; preds = %59
  %76 = load i32, i32* %4, align 4
  %77 = add nsw i32 %76, 1
  store i32 %77, i32* %4, align 4
  br label %55

78:                                               ; preds = %55
  br label %79

79:                                               ; preds = %78
  %80 = load i32, i32* %3, align 4
  %81 = add nsw i32 %80, 1
  store i32 %81, i32* %3, align 4
  br label %43

82:                                               ; preds = %43
  store i32 0, i32* %8, align 4
  store i32 0, i32* %4, align 4
  br label %83

83:                                               ; preds = %100, %82
  %84 = load i32, i32* %4, align 4
  %85 = icmp slt i32 %84, 25
  br i1 %85, label %86, label %103

86:                                               ; preds = %83
  %87 = load i32, i32* %4, align 4
  %88 = sext i32 %87 to i64
  %89 = getelementptr inbounds [26 x i32], [26 x i32]* %10, i64 0, i64 %88
  %90 = load i32, i32* %89, align 4
  %91 = load i32, i32* %8, align 4
  %92 = icmp sgt i32 %90, %91
  br i1 %92, label %93, label %99

93:                                               ; preds = %86
  %94 = load i32, i32* %4, align 4
  %95 = sext i32 %94 to i64
  %96 = getelementptr inbounds [26 x i32], [26 x i32]* %10, i64 0, i64 %95
  %97 = load i32, i32* %96, align 4
  store i32 %97, i32* %8, align 4
  %98 = load i32, i32* %4, align 4
  store i32 %98, i32* %7, align 4
  br label %99

99:                                               ; preds = %93, %86
  br label %100

100:                                              ; preds = %99
  %101 = load i32, i32* %4, align 4
  %102 = add nsw i32 %101, 1
  store i32 %102, i32* %4, align 4
  br label %83

103:                                              ; preds = %83
  %104 = load i32, i32* %7, align 4
  %105 = add nsw i32 65, %104
  %106 = trunc i32 %105 to i8
  store i8 %106, i8* %9, align 1
  %107 = load i8, i8* %9, align 1
  %108 = sext i8 %107 to i32
  %109 = load i32, i32* %8, align 4
  %110 = call i32 (i8*, ...) @printf(i8* getelementptr inbounds ([7 x i8], [7 x i8]* @.str.2, i64 0, i64 0), i32 %108, i32 %109)
  store i32 0, i32* %3, align 4
  br label %111

111:                                              ; preds = %152, %103
  %112 = load i32, i32* %3, align 4
  %113 = load i32, i32* %2, align 4
  %114 = icmp slt i32 %112, %113
  br i1 %114, label %115, label %155

115:                                              ; preds = %111
  %116 = load i32, i32* %3, align 4
  %117 = sext i32 %116 to i64
  %118 = getelementptr inbounds [999 x %struct.anon], [999 x %struct.anon]* %11, i64 0, i64 %117
  %119 = getelementptr inbounds %struct.anon, %struct.anon* %118, i32 0, i32 1
  %120 = getelementptr inbounds [26 x i8], [26 x i8]* %119, i64 0, i64 0
  %121 = call i64 @strlen(i8* %120) #3
  %122 = trunc i64 %121 to i32
  store i32 %122, i32* %5, align 4
  store i32 0, i32* %4, align 4
  br label %123

123:                                              ; preds = %148, %115
  %124 = load i32, i32* %4, align 4
  %125 = load i32, i32* %5, align 4
  %126 = icmp slt i32 %124, %125
  br i1 %126, label %127, label %151

127:                                              ; preds = %123
  %128 = load i32, i32* %3, align 4
  %129 = sext i32 %128 to i64
  %130 = getelementptr inbounds [999 x %struct.anon], [999 x %struct.anon]* %11, i64 0, i64 %129
  %131 = getelementptr inbounds %struct.anon, %struct.anon* %130, i32 0, i32 1
  %132 = load i32, i32* %4, align 4
  %133 = sext i32 %132 to i64
  %134 = getelementptr inbounds [26 x i8], [26 x i8]* %131, i64 0, i64 %133
  %135 = load i8, i8* %134, align 1
  %136 = sext i8 %135 to i32
  %137 = sub nsw i32 %136, 65
  %138 = load i32, i32* %7, align 4
  %139 = icmp eq i32 %137, %138
  br i1 %139, label %140, label %147

140:                                              ; preds = %127
  %141 = load i32, i32* %3, align 4
  %142 = sext i32 %141 to i64
  %143 = getelementptr inbounds [999 x %struct.anon], [999 x %struct.anon]* %11, i64 0, i64 %142
  %144 = getelementptr inbounds %struct.anon, %struct.anon* %143, i32 0, i32 0
  %145 = load i32, i32* %144, align 16
  %146 = call i32 (i8*, ...) @printf(i8* getelementptr inbounds ([4 x i8], [4 x i8]* @.str.3, i64 0, i64 0), i32 %145)
  br label %147

147:                                              ; preds = %140, %127
  br label %148

148:                                              ; preds = %147
  %149 = load i32, i32* %4, align 4
  %150 = add nsw i32 %149, 1
  store i32 %150, i32* %4, align 4
  br label %123

151:                                              ; preds = %123
  br label %152

152:                                              ; preds = %151
  %153 = load i32, i32* %3, align 4
  %154 = add nsw i32 %153, 1
  store i32 %154, i32* %3, align 4
  br label %111

155:                                              ; preds = %111
  ret i32 0
}

declare dso_local i32 @__isoc99_scanf(i8*, ...) #1

; Function Attrs: nounwind readonly
declare dso_local i64 @strlen(i8*) #2

declare dso_local i32 @printf(i8*, ...) #1


!llvm.module.flags = !{!0}
!llvm.ident = !{!1}

!0 = !{i32 1, !"wchar_size", i32 4}
!1 = !{!"clang version 10.0.0-4ubuntu1 "}
